; Function Attrs: nofree norecurse nosync nounwind memory(read, inaccessiblemem: none) uwtable
define internal fastcc { ptr, i64 } @stbtt__get_subrs(ptr %0, i64 %1, ptr %2, i64 %3) unnamed_addr #18 {
  %5 = alloca %struct.stbtt__buf, align 8
  %6 = alloca i32, align 4
  %7 = alloca [2 x i32], align 8
  %8 = alloca %struct.stbtt__buf, align 8
  %.sroa.13.8.extract.shift = lshr i64 %1, 32
  %.sroa.13.8.extract.trunc = trunc nuw i64 %.sroa.13.8.extract.shift to i32
  store ptr %2, ptr %5, align 8
  %9 = getelementptr inbounds nuw i8, ptr %5, i64 8
  store i64 %3, ptr %9, align 8
  call void @llvm.lifetime.start.p0(i64 4, ptr nonnull %6) #41
  store i32 0, ptr %6, align 4
  call void @llvm.lifetime.start.p0(i64 8, ptr nonnull %7) #41
  store i64 0, ptr %7, align 8
  call void @llvm.lifetime.start.p0(i64 16, ptr nonnull %8) #41
  call fastcc void @stbtt__dict_get_ints(ptr noundef %5, i32 noundef 18, i32 noundef 2, ptr noundef %7)
  %10 = getelementptr inbounds nuw i8, ptr %7, i64 4
  %11 = load i32, ptr %10, align 4
  %12 = icmp ne i32 %11, 0
  %13 = load i32, ptr %7, align 8
  %14 = icmp ne i32 %13, 0
  %or.cond = select i1 %12, i1 %14, i1 false
  br i1 %or.cond, label %15, label %79

15:                                               ; preds = %4
  %16 = or i32 %13, %11
  %or.cond.not.i = icmp sgt i32 %16, -1
  br i1 %or.cond.not.i, label %17, label %stbtt__buf_range.exit

17:                                               ; preds = %15
  %18 = icmp sgt i32 %11, %.sroa.13.8.extract.trunc
  %19 = sub nsw i32 %.sroa.13.8.extract.trunc, %11
  %20 = icmp sgt i32 %13, %19
  %or.cond.i = select i1 %18, i1 true, i1 %20
  br i1 %or.cond.i, label %stbtt__buf_range.exit, label %21

21:                                               ; preds = %17
  %22 = zext nneg i32 %11 to i64
  %23 = getelementptr inbounds nuw i8, ptr %0, i64 %22
  %24 = zext nneg i32 %13 to i64
  %25 = shl nuw nsw i64 %24, 32
  br label %stbtt__buf_range.exit

stbtt__buf_range.exit:                            ; preds = %15, %17, %21
  %.sroa.0.0.i = phi ptr [ null, %15 ], [ null, %17 ], [ %23, %21 ]
  %.sroa.5.0.i = phi i64 [ 0, %15 ], [ 0, %17 ], [ %25, %21 ]
  store ptr %.sroa.0.0.i, ptr %8, align 8
  %.sroa.4.0..sroa_idx = getelementptr inbounds nuw i8, ptr %8, i64 8
  store i64 %.sroa.5.0.i, ptr %.sroa.4.0..sroa_idx, align 8
  call fastcc void @stbtt__dict_get_ints(ptr noundef %8, i32 noundef 19, i32 noundef 1, ptr noundef %6)
  %26 = load i32, ptr %6, align 4
  %.not = icmp eq i32 %26, 0
  br i1 %.not, label %79, label %27

27:                                               ; preds = %stbtt__buf_range.exit
  %28 = add i32 %26, %11
  %29 = icmp slt i32 %28, 0
  %30 = tail call i32 @llvm.smin.i32(i32 %28, i32 %.sroa.13.8.extract.trunc)
  %..i = select i1 %29, i32 %.sroa.13.8.extract.trunc, i32 %30
  br label %31

31:                                               ; preds = %stbtt__buf_get8.exit.i.i, %27
  %32 = phi i32 [ %..i, %27 ], [ %40, %stbtt__buf_get8.exit.i.i ]
  %.07.i.i = phi i32 [ 0, %27 ], [ %42, %stbtt__buf_get8.exit.i.i ]
  %.056.i.i = phi i32 [ 0, %27 ], [ %41, %stbtt__buf_get8.exit.i.i ]
  %33 = shl i32 %.056.i.i, 8
  %.not.i.i.i = icmp slt i32 %32, %.sroa.13.8.extract.trunc
  br i1 %.not.i.i.i, label %34, label %stbtt__buf_get8.exit.i.i

34:                                               ; preds = %31
  %35 = add nsw i32 %32, 1
  %36 = sext i32 %32 to i64
  %37 = getelementptr inbounds i8, ptr %0, i64 %36
  %38 = load i8, ptr %37, align 1
  %39 = zext i8 %38 to i32
  br label %stbtt__buf_get8.exit.i.i

stbtt__buf_get8.exit.i.i:                         ; preds = %34, %31
  %40 = phi i32 [ %35, %34 ], [ %32, %31 ]
  %.0.i.i.i = phi i32 [ %39, %34 ], [ 0, %31 ]
  %41 = or disjoint i32 %.0.i.i.i, %33
  %42 = add nuw nsw i32 %.07.i.i, 1
  %exitcond.not.i.i = icmp eq i32 %42, 2
  br i1 %exitcond.not.i.i, label %stbtt__buf_get.exit.i, label %31

stbtt__buf_get.exit.i:                            ; preds = %stbtt__buf_get8.exit.i.i
  %.not.i = icmp eq i32 %41, 0
  br i1 %.not.i, label %stbtt__cff_get_index.exit, label %43

43:                                               ; preds = %stbtt__buf_get.exit.i
  %.not.i.i = icmp slt i32 %40, %.sroa.13.8.extract.trunc
  br i1 %.not.i.i, label %44, label %stbtt__buf_get8.exit.i

44:                                               ; preds = %43
  %45 = add nsw i32 %40, 1
  %46 = sext i32 %40 to i64
  %47 = getelementptr inbounds i8, ptr %0, i64 %46
  %48 = load i8, ptr %47, align 1
  %49 = zext i8 %48 to i32
  br label %stbtt__buf_get8.exit.i

stbtt__buf_get8.exit.i:                           ; preds = %44, %43
  %50 = phi i32 [ %45, %44 ], [ %40, %43 ]
  %.0.i.i = phi i32 [ %49, %44 ], [ 0, %43 ]
  %51 = mul nsw i32 %.0.i.i, %41
  %52 = add nsw i32 %51, %50
  %53 = icmp slt i32 %52, 0
  %54 = tail call i32 @llvm.smin.i32(i32 %52, i32 %.sroa.13.8.extract.trunc)
  %..i.i.i = select i1 %53, i32 %.sroa.13.8.extract.trunc, i32 %54
  %.not.i13.i = icmp eq i32 %.0.i.i, 0
  br i1 %.not.i13.i, label %stbtt__buf_get.exit21.i, label %.lr.ph.i.i

.lr.ph.i.i:                                       ; preds = %stbtt__buf_get8.exit.i, %stbtt__buf_get8.exit.i18.i
  %55 = phi i32 [ %63, %stbtt__buf_get8.exit.i18.i ], [ %..i.i.i, %stbtt__buf_get8.exit.i ]
  %.07.i15.i = phi i32 [ %65, %stbtt__buf_get8.exit.i18.i ], [ 0, %stbtt__buf_get8.exit.i ]
  %.056.i16.i = phi i32 [ %64, %stbtt__buf_get8.exit.i18.i ], [ 0, %stbtt__buf_get8.exit.i ]
  %56 = shl i32 %.056.i16.i, 8
  %.not.i.i17.i = icmp slt i32 %55, %.sroa.13.8.extract.trunc
  br i1 %.not.i.i17.i, label %57, label %stbtt__buf_get8.exit.i18.i

57:                                               ; preds = %.lr.ph.i.i
  %58 = add nsw i32 %55, 1
  %59 = sext i32 %55 to i64
  %60 = getelementptr inbounds i8, ptr %0, i64 %59
  %61 = load i8, ptr %60, align 1
  %62 = zext i8 %61 to i32
  br label %stbtt__buf_get8.exit.i18.i

stbtt__buf_get8.exit.i18.i:                       ; preds = %57, %.lr.ph.i.i
  %63 = phi i32 [ %58, %57 ], [ %55, %.lr.ph.i.i ]
  %.0.i.i19.i = phi i32 [ %62, %57 ], [ 0, %.lr.ph.i.i ]
  %64 = or disjoint i32 %.0.i.i19.i, %56
  %65 = add nuw nsw i32 %.07.i15.i, 1
  %exitcond.not.i20.i = icmp eq i32 %65, %.0.i.i
  br i1 %exitcond.not.i20.i, label %stbtt__buf_get.exit21.loopexit.i, label %.lr.ph.i.i

stbtt__buf_get.exit21.loopexit.i:                 ; preds = %stbtt__buf_get8.exit.i18.i
  %66 = add i32 %64, -1
  br label %stbtt__buf_get.exit21.i

stbtt__buf_get.exit21.i:                          ; preds = %stbtt__buf_get.exit21.loopexit.i, %stbtt__buf_get8.exit.i
  %67 = phi i32 [ %..i.i.i, %stbtt__buf_get8.exit.i ], [ %63, %stbtt__buf_get.exit21.loopexit.i ]
  %.05.lcssa.i.i = phi i32 [ -1, %stbtt__buf_get8.exit.i ], [ %66, %stbtt__buf_get.exit21.loopexit.i ]
  %68 = add nsw i32 %.05.lcssa.i.i, %67
  %69 = icmp slt i32 %68, 0
  %70 = tail call i32 @llvm.smin.i32(i32 %68, i32 %.sroa.13.8.extract.trunc)
  %..i.i22.i = select i1 %69, i32 %.sroa.13.8.extract.trunc, i32 %70
  br label %stbtt__cff_get_index.exit

stbtt__cff_get_index.exit:                        ; preds = %stbtt__buf_get.exit21.i, %stbtt__buf_get.exit.i
  %71 = phi i32 [ %..i.i22.i, %stbtt__buf_get.exit21.i ], [ %40, %stbtt__buf_get.exit.i ]
  %72 = sub nsw i32 %71, %..i
  %73 = or i32 %72, %..i
  %or.cond.not.i.i = icmp slt i32 %73, 0
  %74 = icmp sgt i32 %71, %.sroa.13.8.extract.trunc
  %or.cond14 = select i1 %or.cond.not.i.i, i1 true, i1 %74
  %75 = zext nneg i32 %..i to i64
  %76 = getelementptr inbounds nuw i8, ptr %0, i64 %75
  %77 = zext nneg i32 %72 to i64
  %78 = shl nuw nsw i64 %77, 32
  %.sroa.0.0.i.i = select i1 %or.cond14, ptr null, ptr %76
  %.sroa.5.0.i.i = select i1 %or.cond14, i64 0, i64 %78
  %.fca.0.insert.i.i = insertvalue { ptr, i64 } poison, ptr %.sroa.0.0.i.i, 0
  %.fca.1.insert.i.i = insertvalue { ptr, i64 } %.fca.0.insert.i.i, i64 %.sroa.5.0.i.i, 1
  br label %79

79:                                               ; preds = %stbtt__buf_range.exit, %4, %stbtt__cff_get_index.exit
  %.pn = phi { ptr, i64 } [ %.fca.1.insert.i.i, %stbtt__cff_get_index.exit ], [ zeroinitializer, %4 ], [ zeroinitializer, %stbtt__buf_range.exit ]
  call void @llvm.lifetime.end.p0(i64 16, ptr nonnull %8) #41
  call void @llvm.lifetime.end.p0(i64 8, ptr nonnull %7) #41
  call void @llvm.lifetime.end.p0(i64 4, ptr nonnull %6) #41
  ret { ptr, i64 } %.pn
}